target datalayout = "e-m:e-p270:32:32-p271:32:32-p272:64:64-i64:64-i128:128-f80:128-n8:16:32:64-S128"
target triple = "x86_64-unknown-linux-gnu"

%struct.HIDState = type { %union.anon, i32, i32, i32, i32, i8, i8, ptr, ptr, ptr }
%union.anon = type { %struct.HIDMouseState }
%struct.HIDMouseState = type { [16 x %struct.HIDPointerEvent], i32 }
%struct.HIDPointerEvent = type { i32, i32, i32, i32 }
%struct.HIDKeyboardState = type { [16 x i32], i16, i8, [16 x i8], i32 }

; Function Attrs: nounwind sspstrong uwtable
define internal void @timer_free(ptr noundef %ts) #0 {
entry:
  %ts.addr = alloca ptr, align 8
  store ptr %ts, ptr %ts.addr, align 8
  %0 = load ptr, ptr %ts.addr, align 8
  %tobool = icmp ne ptr %0, null
  br i1 %tobool, label %if.then, label %if.end

if.then:                                          ; preds = %entry
  %1 = load ptr, ptr %ts.addr, align 8
  call void @timer_del(ptr noundef %1)
  %2 = load ptr, ptr %ts.addr, align 8
  call void @g_free(ptr noundef %2)
  br label %if.end

if.end:                                           ; preds = %if.then, %entry
  ret void
}

; Function Attrs: nounwind sspstrong uwtable
define internal void @hid_del_idle_timer(ptr noundef %hs) #0 {
entry:
  %hs.addr = alloca ptr, align 8
  store ptr %hs, ptr %hs.addr, align 8
  %0 = load ptr, ptr %hs.addr, align 8
  %idle_timer = getelementptr inbounds %struct.HIDState, ptr %0, i32 0, i32 7
  %1 = load ptr, ptr %idle_timer, align 8
  %tobool = icmp ne ptr %1, null
  br i1 %tobool, label %if.then, label %if.end

if.then:                                          ; preds = %entry
  %2 = load ptr, ptr %hs.addr, align 8
  %idle_timer1 = getelementptr inbounds %struct.HIDState, ptr %2, i32 0, i32 7
  %3 = load ptr, ptr %idle_timer1, align 8
  call void @timer_free(ptr noundef %3)
  %4 = load ptr, ptr %hs.addr, align 8
  %idle_timer2 = getelementptr inbounds %struct.HIDState, ptr %4, i32 0, i32 7
  store ptr null, ptr %idle_timer2, align 8
  br label %if.end

if.end:                                           ; preds = %if.then, %entry
  ret void
}

; Function Attrs: nounwind sspstrong uwtable
define dso_local void @hid_reset(ptr noundef %hs) #0 {
entry:
  %hs.addr = alloca ptr, align 8
  store ptr %hs, ptr %hs.addr, align 8
  %0 = load ptr, ptr %hs.addr, align 8
  %kind = getelementptr inbounds %struct.HIDState, ptr %0, i32 0, i32 3
  %1 = load i32, ptr %kind, align 4
  switch i32 %1, label %sw.epilog [
    i32 3, label %sw.bb
    i32 1, label %sw.bb2
    i32 2, label %sw.bb2
  ]

sw.bb:                                            ; preds = %entry
  %2 = load ptr, ptr %hs.addr, align 8
  %3 = getelementptr inbounds %struct.HIDState, ptr %2, i32 0, i32 0
  %keycodes = getelementptr inbounds %struct.HIDKeyboardState, ptr %3, i32 0, i32 0
  %arraydecay = getelementptr inbounds [16 x i32], ptr %keycodes, i64 0, i64 0
  call void @llvm.memset.p0.i64(ptr align 8 %arraydecay, i8 0, i64 64, i1 false)
  %4 = load ptr, ptr %hs.addr, align 8
  %5 = getelementptr inbounds %struct.HIDState, ptr %4, i32 0, i32 0
  %key = getelementptr inbounds %struct.HIDKeyboardState, ptr %5, i32 0, i32 3
  %arraydecay1 = getelementptr inbounds [16 x i8], ptr %key, i64 0, i64 0
  call void @llvm.memset.p0.i64(ptr align 1 %arraydecay1, i8 0, i64 16, i1 false)
  %6 = load ptr, ptr %hs.addr, align 8
  %7 = getelementptr inbounds %struct.HIDState, ptr %6, i32 0, i32 0
  %keys = getelementptr inbounds %struct.HIDKeyboardState, ptr %7, i32 0, i32 4
  store i32 0, ptr %keys, align 4
  %8 = load ptr, ptr %hs.addr, align 8
  %9 = getelementptr inbounds %struct.HIDState, ptr %8, i32 0, i32 0
  %modifiers = getelementptr inbounds %struct.HIDKeyboardState, ptr %9, i32 0, i32 1
  store i16 0, ptr %modifiers, align 8
  br label %sw.epilog

sw.bb2:                                           ; preds = %entry, %entry
  %10 = load ptr, ptr %hs.addr, align 8
  %11 = getelementptr inbounds %struct.HIDState, ptr %10, i32 0, i32 0
  %queue = getelementptr inbounds %struct.HIDMouseState, ptr %11, i32 0, i32 0
  %arraydecay3 = getelementptr inbounds [16 x %struct.HIDPointerEvent], ptr %queue, i64 0, i64 0
  call void @llvm.memset.p0.i64(ptr align 8 %arraydecay3, i8 0, i64 256, i1 false)
  br label %sw.epilog

sw.epilog:                                        ; preds = %sw.bb2, %sw.bb, %entry
  %12 = load ptr, ptr %hs.addr, align 8
  %head = getelementptr inbounds %struct.HIDState, ptr %12, i32 0, i32 1
  store i32 0, ptr %head, align 4
  %13 = load ptr, ptr %hs.addr, align 8
  %n = getelementptr inbounds %struct.HIDState, ptr %13, i32 0, i32 2
  store i32 0, ptr %n, align 8
  %14 = load ptr, ptr %hs.addr, align 8
  %protocol = getelementptr inbounds %struct.HIDState, ptr %14, i32 0, i32 4
  store i32 1, ptr %protocol, align 8
  %15 = load ptr, ptr %hs.addr, align 8
  %idle = getelementptr inbounds %struct.HIDState, ptr %15, i32 0, i32 5
  store i8 0, ptr %idle, align 4
  %16 = load ptr, ptr %hs.addr, align 8
  %idle_pending = getelementptr inbounds %struct.HIDState, ptr %16, i32 0, i32 6
  store i8 0, ptr %idle_pending, align 1
  %17 = load ptr, ptr %hs.addr, align 8
  call void @hid_del_idle_timer(ptr noundef %17)
  ret void
}