; Function Attrs: nounwind sspstrong uwtable
define dso_local void @hid_reset(ptr noundef captures(none) initializes((260, 268), (272, 278)) %hs) local_unnamed_addr #1 {
entry:
  %kind = getelementptr inbounds nuw i8, ptr %hs, i64 268
  %0 = load i32, ptr %kind, align 4
  switch i32 %0, label %sw.epilog [
    i32 3, label %sw.bb
    i32 1, label %sw.bb2
    i32 2, label %sw.bb2
  ]

sw.bb:                                            ; preds = %entry
  %key = getelementptr inbounds nuw i8, ptr %hs, i64 67
  tail call void @llvm.memset.p0.i64(ptr noundef nonnull align 1 dereferenceable(16) %key, i8 0, i64 16, i1 false)
  %keys = getelementptr inbounds nuw i8, ptr %hs, i64 84
  store i32 0, ptr %keys, align 4
  tail call void @llvm.memset.p0.i64(ptr noundef nonnull align 8 dereferenceable(66) %hs, i8 0, i64 66, i1 false)
  br label %sw.epilog

sw.bb2:                                           ; preds = %entry, %entry
  tail call void @llvm.memset.p0.i64(ptr noundef nonnull align 8 dereferenceable(256) %hs, i8 0, i64 256, i1 false)
  br label %sw.epilog

sw.epilog:                                        ; preds = %sw.bb2, %sw.bb, %entry
  %head = getelementptr inbounds nuw i8, ptr %hs, i64 260
  store i32 0, ptr %head, align 4
  %n = getelementptr inbounds nuw i8, ptr %hs, i64 264
  store i32 0, ptr %n, align 8
  %protocol = getelementptr inbounds nuw i8, ptr %hs, i64 272
  store i32 1, ptr %protocol, align 8
  %idle = getelementptr inbounds nuw i8, ptr %hs, i64 276
  store i8 0, ptr %idle, align 4
  %idle_pending = getelementptr inbounds nuw i8, ptr %hs, i64 277
  store i8 0, ptr %idle_pending, align 1
  %idle_timer.i = getelementptr inbounds nuw i8, ptr %hs, i64 280
  %1 = load ptr, ptr %idle_timer.i, align 8
  %tobool.not.i = icmp eq ptr %1, null
  br i1 %tobool.not.i, label %hid_del_idle_timer.exit, label %if.then.i

if.then.i:                                        ; preds = %sw.epilog
  tail call void @timer_del(ptr noundef nonnull %1) #11
  tail call void @g_free(ptr noundef nonnull %1) #11
  store ptr null, ptr %idle_timer.i, align 8
  br label %hid_del_idle_timer.exit

hid_del_idle_timer.exit:                          ; preds = %sw.epilog, %if.then.i
  ret void
}